target datalayout = "e-m:e-p270:32:32-p271:32:32-p272:64:64-i64:64-i128:128-f80:128-n8:16:32:64-S128"
target triple = "x86_64-pc-linux-gnu"

%struct.AVChannelLayout = type { i32, i32, %union.anon.1, ptr }
%union.anon.1 = type { i64 }
%struct.AVRational = type { i32, i32 }
%struct.AVFrame = type { [8 x ptr], [8 x i32], ptr, i32, i32, i32, i32, i32, %struct.AVRational, i64, i64, %struct.AVRational, i32, ptr, i32, i32, [8 x ptr], ptr, i32, ptr, i32, i32, i32, i32, i32, i32, i32, i64, ptr, i32, ptr, ptr, i64, i64, i64, i64, ptr, %struct.AVChannelLayout, i64 }
%union.ColorFloat = type { %struct.RGBFloat }
%struct.RGBFloat = type { float, float, float }

; Function Attrs: nounwind uwtable
define internal void @draw_bar_rgb(ptr noundef %0, ptr noundef %1, ptr noundef %2, ptr noundef %3, i32 noundef %4, float noundef %5) #1 {
  %7 = alloca ptr, align 8
  %8 = alloca ptr, align 8
  %9 = alloca ptr, align 8
  %10 = alloca ptr, align 8
  %11 = alloca i32, align 4
  %12 = alloca float, align 4
  %13 = alloca i32, align 4
  %14 = alloca i32, align 4
  %15 = alloca i32, align 4
  %16 = alloca float, align 4
  %17 = alloca float, align 4
  %18 = alloca float, align 4
  %19 = alloca float, align 4
  %20 = alloca ptr, align 8
  %21 = alloca ptr, align 8
  %22 = alloca i32, align 4
  store ptr %0, ptr %7, align 8, !tbaa !59
  store ptr %1, ptr %8, align 8, !tbaa !158
  store ptr %2, ptr %9, align 8, !tbaa !158
  store ptr %3, ptr %10, align 8, !tbaa !159
  store i32 %4, ptr %11, align 4, !tbaa !50
  store float %5, ptr %12, align 4, !tbaa !70
  call void @llvm.lifetime.start.p0(i64 4, ptr %13) #12
  call void @llvm.lifetime.start.p0(i64 4, ptr %14) #12
  call void @llvm.lifetime.start.p0(i64 4, ptr %15) #12
  %23 = load ptr, ptr %7, align 8, !tbaa !59
  %24 = getelementptr inbounds nuw %struct.AVFrame, ptr %23, i32 0, i32 3
  %25 = load i32, ptr %24, align 8, !tbaa !160
  store i32 %25, ptr %15, align 4, !tbaa !50
  call void @llvm.lifetime.start.p0(i64 4, ptr %16) #12
  call void @llvm.lifetime.start.p0(i64 4, ptr %17) #12
  call void @llvm.lifetime.start.p0(i64 4, ptr %18) #12
  %26 = load i32, ptr %11, align 4, !tbaa !50
  %27 = sitofp i32 %26 to float
  %28 = fdiv nsz float 1.000000e+00, %27
  store float %28, ptr %18, align 4, !tbaa !70
  call void @llvm.lifetime.start.p0(i64 4, ptr %19) #12
  %29 = load float, ptr %12, align 4, !tbaa !70
  %30 = fdiv nsz float 1.000000e+00, %29
  store float %30, ptr %19, align 4, !tbaa !70
  call void @llvm.lifetime.start.p0(i64 8, ptr %20) #12
  %31 = load ptr, ptr %7, align 8, !tbaa !59
  %32 = getelementptr inbounds nuw %struct.AVFrame, ptr %31, i32 0, i32 0
  %33 = getelementptr inbounds [8 x ptr], ptr %32, i64 0, i64 0
  %34 = load ptr, ptr %33, align 8, !tbaa !123
  store ptr %34, ptr %20, align 8, !tbaa !123
  call void @llvm.lifetime.start.p0(i64 8, ptr %21) #12
  call void @llvm.lifetime.start.p0(i64 4, ptr %22) #12
  %35 = load ptr, ptr %7, align 8, !tbaa !59
  %36 = getelementptr inbounds nuw %struct.AVFrame, ptr %35, i32 0, i32 1
  %37 = getelementptr inbounds [8 x i32], ptr %36, i64 0, i64 0
  %38 = load i32, ptr %37, align 8, !tbaa !50
  store i32 %38, ptr %22, align 4, !tbaa !50
  store i32 0, ptr %14, align 4, !tbaa !50
  br label %39

39:                                               ; preds = %140, %6
  %40 = load i32, ptr %14, align 4, !tbaa !50
  %41 = load i32, ptr %11, align 4, !tbaa !50
  %42 = icmp slt i32 %40, %41
  br i1 %42, label %43, label %143

43:                                               ; preds = %39
  %44 = load i32, ptr %11, align 4, !tbaa !50
  %45 = load i32, ptr %14, align 4, !tbaa !50
  %46 = sub nsw i32 %44, %45
  %47 = sitofp i32 %46 to float
  %48 = load float, ptr %18, align 4, !tbaa !70
  %49 = fmul nsz float %47, %48
  store float %49, ptr %17, align 4, !tbaa !70
  %50 = load ptr, ptr %20, align 8, !tbaa !123
  %51 = load i32, ptr %14, align 4, !tbaa !50
  %52 = load i32, ptr %22, align 4, !tbaa !50
  %53 = mul nsw i32 %51, %52
  %54 = sext i32 %53 to i64
  %55 = getelementptr inbounds i8, ptr %50, i64 %54
  store ptr %55, ptr %21, align 8, !tbaa !123
  store i32 0, ptr %13, align 4, !tbaa !50
  br label %56

56:                                               ; preds = %136, %43
  %57 = load i32, ptr %13, align 4, !tbaa !50
  %58 = load i32, ptr %15, align 4, !tbaa !50
  %59 = icmp slt i32 %57, %58
  br i1 %59, label %60, label %139

60:                                               ; preds = %56
  %61 = load ptr, ptr %8, align 8, !tbaa !158
  %62 = load i32, ptr %13, align 4, !tbaa !50
  %63 = sext i32 %62 to i64
  %64 = getelementptr inbounds float, ptr %61, i64 %63
  %65 = load float, ptr %64, align 4, !tbaa !70
  %66 = load float, ptr %17, align 4, !tbaa !70
  %67 = fcmp nsz ole float %65, %66
  br i1 %67, label %68, label %75

68:                                               ; preds = %60
  %69 = load ptr, ptr %21, align 8, !tbaa !123
  %70 = getelementptr inbounds nuw i8, ptr %69, i32 1
  store ptr %70, ptr %21, align 8, !tbaa !123
  store i8 0, ptr %69, align 1, !tbaa !161
  %71 = load ptr, ptr %21, align 8, !tbaa !123
  %72 = getelementptr inbounds nuw i8, ptr %71, i32 1
  store ptr %72, ptr %21, align 8, !tbaa !123
  store i8 0, ptr %71, align 1, !tbaa !161
  %73 = load ptr, ptr %21, align 8, !tbaa !123
  %74 = getelementptr inbounds nuw i8, ptr %73, i32 1
  store ptr %74, ptr %21, align 8, !tbaa !123
  store i8 0, ptr %73, align 1, !tbaa !161
  br label %135

75:                                               ; preds = %60
  %76 = load ptr, ptr %8, align 8, !tbaa !158
  %77 = load i32, ptr %13, align 4, !tbaa !50
  %78 = sext i32 %77 to i64
  %79 = getelementptr inbounds float, ptr %76, i64 %78
  %80 = load float, ptr %79, align 4, !tbaa !70
  %81 = load float, ptr %17, align 4, !tbaa !70
  %82 = fsub nsz float %80, %81
  %83 = load ptr, ptr %9, align 8, !tbaa !158
  %84 = load i32, ptr %13, align 4, !tbaa !50
  %85 = sext i32 %84 to i64
  %86 = getelementptr inbounds float, ptr %83, i64 %85
  %87 = load float, ptr %86, align 4, !tbaa !70
  %88 = fmul nsz float %82, %87
  store float %88, ptr %16, align 4, !tbaa !70
  %89 = load float, ptr %16, align 4, !tbaa !70
  %90 = load float, ptr %12, align 4, !tbaa !70
  %91 = fcmp nsz olt float %89, %90
  br i1 %91, label %92, label %96

92:                                               ; preds = %75
  %93 = load float, ptr %16, align 4, !tbaa !70
  %94 = load float, ptr %19, align 4, !tbaa !70
  %95 = fmul nsz float %93, %94
  br label %97

96:                                               ; preds = %75
  br label %97

97:                                               ; preds = %96, %92
  %98 = phi nsz float [ %95, %92 ], [ 1.000000e+00, %96 ]
  store float %98, ptr %16, align 4, !tbaa !70
  %99 = load float, ptr %16, align 4, !tbaa !70
  %100 = load ptr, ptr %10, align 8, !tbaa !159
  %101 = load i32, ptr %13, align 4, !tbaa !50
  %102 = sext i32 %101 to i64
  %103 = getelementptr inbounds %union.ColorFloat, ptr %100, i64 %102
  %104 = getelementptr inbounds nuw %struct.RGBFloat, ptr %103, i32 0, i32 0
  %105 = load float, ptr %104, align 4, !tbaa !161
  %106 = fmul nsz float %99, %105
  %107 = call i64 @llvm.lrint.i64.f32(float %106)
  %108 = trunc i64 %107 to i8
  %109 = load ptr, ptr %21, align 8, !tbaa !123
  %110 = getelementptr inbounds nuw i8, ptr %109, i32 1
  store ptr %110, ptr %21, align 8, !tbaa !123
  store i8 %108, ptr %109, align 1, !tbaa !161
  %111 = load float, ptr %16, align 4, !tbaa !70
  %112 = load ptr, ptr %10, align 8, !tbaa !159
  %113 = load i32, ptr %13, align 4, !tbaa !50
  %114 = sext i32 %113 to i64
  %115 = getelementptr inbounds %union.ColorFloat, ptr %112, i64 %114
  %116 = getelementptr inbounds nuw %struct.RGBFloat, ptr %115, i32 0, i32 1
  %117 = load float, ptr %116, align 4, !tbaa !161
  %118 = fmul nsz float %111, %117
  %119 = call i64 @llvm.lrint.i64.f32(float %118)
  %120 = trunc i64 %119 to i8
  %121 = load ptr, ptr %21, align 8, !tbaa !123
  %122 = getelementptr inbounds nuw i8, ptr %121, i32 1
  store ptr %122, ptr %21, align 8, !tbaa !123
  store i8 %120, ptr %121, align 1, !tbaa !161
  %123 = load float, ptr %16, align 4, !tbaa !70
  %124 = load ptr, ptr %10, align 8, !tbaa !159
  %125 = load i32, ptr %13, align 4, !tbaa !50
  %126 = sext i32 %125 to i64
  %127 = getelementptr inbounds %union.ColorFloat, ptr %124, i64 %126
  %128 = getelementptr inbounds nuw %struct.RGBFloat, ptr %127, i32 0, i32 2
  %129 = load float, ptr %128, align 4, !tbaa !161
  %130 = fmul nsz float %123, %129
  %131 = call i64 @llvm.lrint.i64.f32(float %130)
  %132 = trunc i64 %131 to i8
  %133 = load ptr, ptr %21, align 8, !tbaa !123
  %134 = getelementptr inbounds nuw i8, ptr %133, i32 1
  store ptr %134, ptr %21, align 8, !tbaa !123
  store i8 %132, ptr %133, align 1, !tbaa !161
  br label %135

135:                                              ; preds = %97, %68
  br label %136

136:                                              ; preds = %135
  %137 = load i32, ptr %13, align 4, !tbaa !50
  %138 = add nsw i32 %137, 1
  store i32 %138, ptr %13, align 4, !tbaa !50
  br label %56, !llvm.loop !162

139:                                              ; preds = %56
  br label %140

140:                                              ; preds = %139
  %141 = load i32, ptr %14, align 4, !tbaa !50
  %142 = add nsw i32 %141, 1
  store i32 %142, ptr %14, align 4, !tbaa !50
  br label %39, !llvm.loop !163

143:                                              ; preds = %39
  call void @llvm.lifetime.end.p0(i64 4, ptr %22) #12
  call void @llvm.lifetime.end.p0(i64 8, ptr %21) #12
  call void @llvm.lifetime.end.p0(i64 8, ptr %20) #12
  call void @llvm.lifetime.end.p0(i64 4, ptr %19) #12
  call void @llvm.lifetime.end.p0(i64 4, ptr %18) #12
  call void @llvm.lifetime.end.p0(i64 4, ptr %17) #12
  call void @llvm.lifetime.end.p0(i64 4, ptr %16) #12
  call void @llvm.lifetime.end.p0(i64 4, ptr %15) #12
  call void @llvm.lifetime.end.p0(i64 4, ptr %14) #12
  call void @llvm.lifetime.end.p0(i64 4, ptr %13) #12
  ret void
}