; Function Attrs: nofree norecurse nosync nounwind memory(write, argmem: readwrite, inaccessiblemem: none) uwtable
define internal void @draw_bar_rgb(ptr noundef readonly captures(none) %0, ptr noundef readonly captures(none) %1, ptr noundef readonly captures(none) %2, ptr noundef readonly captures(none) %3, i32 noundef %4, float noundef %5) #8 {
  %7 = getelementptr inbounds nuw i8, ptr %0, i64 104
  %8 = load i32, ptr %7, align 8, !tbaa !147
  %9 = sitofp i32 %4 to float
  %10 = fdiv nsz float 1.000000e+00, %9
  %11 = fdiv nsz float 1.000000e+00, %5
  %12 = load ptr, ptr %0, align 8, !tbaa !130
  %13 = icmp sgt i32 %4, 0
  %14 = icmp sgt i32 %8, 0
  %or.cond = select i1 %13, i1 %14, i1 false
  br i1 %or.cond, label %.lr.ph.us.preheader, label %._crit_edge53

.lr.ph.us.preheader:                              ; preds = %6
  %15 = getelementptr inbounds nuw i8, ptr %0, i64 64
  %16 = load i32, ptr %15, align 8, !tbaa !143
  %17 = sext i32 %16 to i64
  %wide.trip.count59 = zext nneg i32 %4 to i64
  %wide.trip.count = zext nneg i32 %8 to i64
  br label %.lr.ph.us

.lr.ph.us:                                        ; preds = %.lr.ph.us.preheader, %._crit_edge.us
  %indvars.iv56 = phi i64 [ 0, %.lr.ph.us.preheader ], [ %indvars.iv.next57, %._crit_edge.us ]
  %18 = trunc i64 %indvars.iv56 to i32
  %19 = sub i32 %4, %18
  %20 = sitofp i32 %19 to float
  %21 = fmul nsz float %10, %20
  %22 = mul nsw i64 %indvars.iv56, %17
  %23 = getelementptr inbounds i8, ptr %12, i64 %22
  br label %24

24:                                               ; preds = %.lr.ph.us, %54
  %indvars.iv = phi i64 [ 0, %.lr.ph.us ], [ %indvars.iv.next, %54 ]
  %.04348.us = phi ptr [ %23, %.lr.ph.us ], [ %.1.us, %54 ]
  %25 = getelementptr inbounds nuw float, ptr %1, i64 %indvars.iv
  %26 = load float, ptr %25, align 4, !tbaa !61
  %27 = fcmp nsz ugt float %26, %21
  br i1 %27, label %30, label %28

28:                                               ; preds = %24
  %29 = getelementptr inbounds nuw i8, ptr %.04348.us, i64 1
  store i8 0, ptr %.04348.us, align 1, !tbaa !148
  store i8 0, ptr %29, align 1, !tbaa !148
  br label %54

30:                                               ; preds = %24
  %31 = fsub nsz float %26, %21
  %32 = getelementptr inbounds nuw float, ptr %2, i64 %indvars.iv
  %33 = load float, ptr %32, align 4, !tbaa !61
  %34 = fmul nsz float %31, %33
  %35 = fcmp nsz olt float %34, %5
  %36 = fmul nsz float %11, %34
  %37 = select nsz i1 %35, float %36, float 1.000000e+00
  %38 = getelementptr inbounds nuw %union.ColorFloat, ptr %3, i64 %indvars.iv
  %39 = load float, ptr %38, align 4, !tbaa !148
  %40 = fmul nsz float %39, %37
  %41 = tail call i64 @llvm.lrint.i64.f32(float %40)
  %42 = trunc i64 %41 to i8
  %43 = getelementptr inbounds nuw i8, ptr %.04348.us, i64 1
  store i8 %42, ptr %.04348.us, align 1, !tbaa !148
  %44 = getelementptr inbounds nuw i8, ptr %38, i64 4
  %45 = load float, ptr %44, align 4, !tbaa !148
  %46 = fmul nsz float %37, %45
  %47 = tail call i64 @llvm.lrint.i64.f32(float %46)
  %48 = trunc i64 %47 to i8
  store i8 %48, ptr %43, align 1, !tbaa !148
  %49 = getelementptr inbounds nuw i8, ptr %38, i64 8
  %50 = load float, ptr %49, align 4, !tbaa !148
  %51 = fmul nsz float %37, %50
  %52 = tail call i64 @llvm.lrint.i64.f32(float %51)
  %53 = trunc i64 %52 to i8
  br label %54

54:                                               ; preds = %30, %28
  %.sink = phi i8 [ %53, %30 ], [ 0, %28 ]
  %55 = getelementptr inbounds nuw i8, ptr %.04348.us, i64 2
  store i8 %.sink, ptr %55, align 1, !tbaa !148
  %.1.us = getelementptr inbounds nuw i8, ptr %.04348.us, i64 3
  %indvars.iv.next = add nuw nsw i64 %indvars.iv, 1
  %exitcond.not = icmp eq i64 %indvars.iv.next, %wide.trip.count
  br i1 %exitcond.not, label %._crit_edge.us, label %24, !llvm.loop !149

._crit_edge.us:                                   ; preds = %54
  %indvars.iv.next57 = add nuw nsw i64 %indvars.iv56, 1
  %exitcond60.not = icmp eq i64 %indvars.iv.next57, %wide.trip.count59
  br i1 %exitcond60.not, label %._crit_edge53, label %.lr.ph.us, !llvm.loop !150

._crit_edge53:                                    ; preds = %._crit_edge.us, %6
  ret void
}